; Function Attrs: nofree norecurse nosync nounwind memory(readwrite, inaccessiblemem: none) uwtable
define void @PQdownheap(i32 noundef %0) local_unnamed_addr #5 {
  %2 = load ptr, ptr @pq, align 8, !tbaa !3
  %3 = sext i32 %0 to i64
  %4 = getelementptr inbounds ptr, ptr %2, i64 %3
  %5 = load ptr, ptr %4, align 8, !tbaa !10
  %6 = load i32, ptr %5, align 8, !tbaa !14
  %7 = load i32, ptr @PQcnt, align 4, !tbaa !12
  %8 = sdiv i32 %7, 2
  %.not27 = icmp sgt i32 %0, %8
  br i1 %.not27, label %._crit_edge, label %.lr.ph

.lr.ph:                                           ; preds = %1, %24
  %.02328 = phi i32 [ %.0, %24 ], [ %0, %1 ]
  %9 = shl nsw i32 %.02328, 1
  %10 = sext i32 %9 to i64
  %11 = getelementptr inbounds ptr, ptr %2, i64 %10
  %12 = load ptr, ptr %11, align 8, !tbaa !10
  %13 = icmp slt i32 %9, %7
  %14 = load i32, ptr %12, align 8, !tbaa !14
  br i1 %13, label %15, label %.lr.ph._crit_edge

15:                                               ; preds = %.lr.ph
  %16 = or disjoint i32 %9, 1
  %17 = sext i32 %16 to i64
  %18 = getelementptr inbounds ptr, ptr %2, i64 %17
  %19 = load ptr, ptr %18, align 8, !tbaa !10
  %20 = load i32, ptr %19, align 8, !tbaa !14
  %21 = icmp slt i32 %14, %20
  %22 = tail call i32 @llvm.smax.i32(i32 %14, i32 %20)
  %spec.select = select i1 %21, ptr %19, ptr %12
  %spec.select26 = select i1 %21, i32 %16, i32 %9
  br label %.lr.ph._crit_edge

.lr.ph._crit_edge:                                ; preds = %.lr.ph, %15
  %23 = phi i32 [ %22, %15 ], [ %14, %.lr.ph ]
  %.022 = phi ptr [ %spec.select, %15 ], [ %12, %.lr.ph ]
  %.0 = phi i32 [ %spec.select26, %15 ], [ %9, %.lr.ph ]
  %.not25 = icmp slt i32 %6, %23
  br i1 %.not25, label %24, label %._crit_edge.loopexit

24:                                               ; preds = %.lr.ph._crit_edge
  %25 = sext i32 %.02328 to i64
  %26 = getelementptr inbounds ptr, ptr %2, i64 %25
  store ptr %.022, ptr %26, align 8, !tbaa !10
  %27 = getelementptr inbounds nuw i8, ptr %.022, i64 4
  store i32 %.02328, ptr %27, align 4, !tbaa !20
  %.not = icmp sgt i32 %.0, %8
  br i1 %.not, label %._crit_edge.loopexit, label %.lr.ph, !llvm.loop !23

._crit_edge.loopexit:                             ; preds = %.lr.ph._crit_edge, %24
  %.023.lcssa.ph = phi i32 [ %.0, %24 ], [ %.02328, %.lr.ph._crit_edge ]
  %.pre31 = sext i32 %.023.lcssa.ph to i64
  br label %._crit_edge

._crit_edge:                                      ; preds = %._crit_edge.loopexit, %1
  %.pre-phi = phi i64 [ %.pre31, %._crit_edge.loopexit ], [ %3, %1 ]
  %.023.lcssa = phi i32 [ %.023.lcssa.ph, %._crit_edge.loopexit ], [ %0, %1 ]
  %28 = getelementptr inbounds ptr, ptr %2, i64 %.pre-phi
  store ptr %5, ptr %28, align 8, !tbaa !10
  %29 = getelementptr inbounds nuw i8, ptr %5, i64 4
  store i32 %.023.lcssa, ptr %29, align 4, !tbaa !20
  ret void
}